; Function Attrs: nounwind uwtable
define internal { i64, ptr } @f_halt(ptr noundef %0, i64 %1, ptr %2) #0 {
  tail call void @jv_free(i64 %1, ptr %2) #14
  %4 = tail call { i64, ptr } @jv_invalid() #14
  %5 = extractvalue { i64, ptr } %4, 0
  %6 = extractvalue { i64, ptr } %4, 1
  %7 = tail call { i64, ptr } @jv_invalid() #14
  %8 = extractvalue { i64, ptr } %7, 0
  %9 = extractvalue { i64, ptr } %7, 1
  tail call void @jq_halt(ptr noundef %0, i64 %5, ptr %6, i64 %8, ptr %9) #14
  %10 = tail call { i64, ptr } @jv_true() #14
  ret { i64, ptr } %10
}